(dp1
S'output'
p2
S"<type 'exceptions.IndentationError'> unexpected indent (controllers/default.py, line 28)"
p3
sS'layer'
p4
S'C:\\Users\\Justice\\Desktop\\cs115-main\\cs115-project\\web2py\\applications\\RPSOnline\\controllers/default.py'
p5
sS'code'
p6
S'# -*- coding: utf-8 -*-\n# this file is released under public domain and you can use without limitations\n\n# -------------------------------------------------------------------------\n# This is a sample controller\n# - index is the default action of any application\n# - user is required for authentication and authorization\n# - download is for downloading files uploaded in the db (does streaming)\n# -------------------------------------------------------------------------\n\n\ndef index():\n    """\n    example action using the internationalization operator T and flash\n    rendered by views/default/index.html or views/generic.html\n\n    if you need a simple wiki simply replace the two lines below with:\n    return auth.wiki()\n    """\n    response.flash = T("Welcome to RPSOnline!")\n    return dict()\n\n\n@auth.requires_login()\ndef profile():\n    form = SQLFORM(db.profile),\n    labels= {\'RPS\': "Favorite Choice", \'pic\': "Profile Picture"},\n                 submit_button = \'Submit your content\'\n    return dict(form=form)\n\ndef user():\n    """\n    exposes:\n    http://..../[app]/default/user/login\n    http://..../[app]/default/user/logout\n    http://..../[app]/default/user/register\n    http://..../[app]/default/user/profile\n    http://..../[app]/default/user/retrieve_password\n    http://..../[app]/default/user/change_password\n    http://..../[app]/default/user/bulk_register\n    use @auth.requires_login()\n        @auth.requires_membership(\'group name\')\n        @auth.requires_permission(\'read\',\'table name\',record_id)\n    to decorate functions that need access control\n    also notice there is http://..../[app]/appadmin/manage/auth to allow administrator to manage users\n    """\n    return dict(form=auth())\n\n\n@cache.action()\ndef download():\n    """\n    allows downloading of uploaded files\n    http://..../[app]/default/download/[filename]\n    """\n    return response.download(request, db)\n\n\ndef call():\n    """\n    exposes services. for example:\n    http://..../[app]/default/call/jsonrpc\n    decorate with @services.jsonrpc the functions to expose\n    supports xml, json, xmlrpc, jsonrpc, amfrpc, rss, csv\n    """\n    return service()\n\nresponse._vars=response._caller(profile)\n'
p7
sS'snapshot'
p8
(dp9
S'exception'
p10
(dp11
S'__getslice__'
p12
S"<method-wrapper '__getslice__' of exceptions.IndentationError object>"
p13
sS'text'
p14
S'"                 submit_button = \'Submit your content\'\\n"'
p15
sS'__str__'
p16
S"<method-wrapper '__str__' of exceptions.IndentationError object>"
p17
sS'__reduce__'
p18
S'<built-in method __reduce__ of exceptions.IndentationError object>'
p19
sS'__dict__'
p20
S'{}'
p21
sS'__sizeof__'
p22
S'<built-in method __sizeof__ of exceptions.IndentationError object>'
p23
sS'__init__'
p24
S"<method-wrapper '__init__' of exceptions.IndentationError object>"
p25
sS'__setattr__'
p26
S"<method-wrapper '__setattr__' of exceptions.IndentationError object>"
p27
sS'__reduce_ex__'
p28
S'<built-in method __reduce_ex__ of exceptions.IndentationError object>'
p29
sS'__new__'
p30
S'<built-in method __new__ of type object>'
p31
sS'__format__'
p32
S'<built-in method __format__ of exceptions.IndentationError object>'
p33
sS'__class__'
p34
S"<type 'exceptions.IndentationError'>"
p35
sS'filename'
p36
S"r'C:\\Users\\Justice\\Desktop\\cs115-main\\cs115-projec...2py\\applications\\RPSOnline\\controllers/default.py'"
p37
sS'lineno'
p38
S'28'
p39
sS'msg'
p40
S"'unexpected indent'"
p41
sS'__doc__'
p42
S"'Improper indentation.'"
p43
sS'__getitem__'
p44
S"<method-wrapper '__getitem__' of exceptions.IndentationError object>"
p45
sS'__setstate__'
p46
S'<built-in method __setstate__ of exceptions.IndentationError object>'
p47
sS'__getattribute__'
p48
S"<method-wrapper '__getattribute__' of exceptions.IndentationError object>"
p49
sS'print_file_and_line'
p50
S'None'
p51
sS'args'
p52
S'(\'unexpected indent\', (r\'C:\\Users\\Justice\\Desktop\\cs115-main\\cs115-projec...2py\\applications\\RPSOnline\\controllers/default.py\', 28, 17, "                 submit_button = \'Submit your content\'\\n"))'
p53
sS'__subclasshook__'
p54
S'<built-in method __subclasshook__ of type object>'
p55
sS'offset'
p56
S'17'
p57
sS'__unicode__'
p58
S'<built-in method __unicode__ of exceptions.IndentationError object>'
p59
sS'__delattr__'
p60
S"<method-wrapper '__delattr__' of exceptions.IndentationError object>"
p61
sS'__repr__'
p62
S"<method-wrapper '__repr__' of exceptions.IndentationError object>"
p63
sS'__hash__'
p64
S"<method-wrapper '__hash__' of exceptions.IndentationError object>"
p65
ssS'evalue'
p66
S'unexpected indent (controllers/default.py, line 28)'
p67
sS'request'
p68
cgluon.html
XML_unpickle
p69
(S's{f\x00\x00<div><table><tr><td style="font-weight:bold;vertical-align:top;">ajax</td><td style="vertical-align:top;">:</td><td><div>False</div></td></tr><tr><td style="font-weight:bold;vertical-align:top;">application</td><td style="vertical-align:top;">:</td><td><div>RPSOnline</div></td></tr><tr><td style="font-weight:bold;vertical-align:top;">args</td><td style="vertical-align:top;">:</td><td><div><table></table></div></td></tr><tr><td style="font-weight:bold;vertical-align:top;">cid</td><td style="vertical-align:top;">:</td><td><div>None</div></td></tr><tr><td style="font-weight:bold;vertical-align:top;">client</td><td style="vertical-align:top;">:</td><td><div>127.0.0.1</div></td></tr><tr><td style="font-weight:bold;vertical-align:top;">controller</td><td style="vertical-align:top;">:</td><td><div>default</div></td></tr><tr><td style="font-weight:bold;vertical-align:top;">cookies</td><td style="vertical-align:top;">:</td><td><div><table><tr><td style="font-weight:bold;vertical-align:top;">session_id_admin</td><td style="vertical-align:top;">:</td><td><div>127.0.0.1-31d97684-507c-482b-ae6e-5dcceb57d82e<table><tr><td style="font-weight:bold;vertical-align:top;">comment</td><td style="vertical-align:top;">:</td><td><div></div></td></tr><tr><td style="font-weight:bold;vertical-align:top;">domain</td><td style="vertical-align:top;">:</td><td><div></div></td></tr><tr><td style="font-weight:bold;vertical-align:top;">expires</td><td style="vertical-align:top;">:</td><td><div></div></td></tr><tr><td style="font-weight:bold;vertical-align:top;">httponly</td><td style="vertical-align:top;">:</td><td><div></div></td></tr><tr><td style="font-weight:bold;vertical-align:top;">max-age</td><td style="vertical-align:top;">:</td><td><div></div></td></tr><tr><td style="font-weight:bold;vertical-align:top;">path</td><td style="vertical-align:top;">:</td><td><div></div></td></tr><tr><td style="font-weight:bold;vertical-align:top;">secure</td><td style="vertical-align:top;">:</td><td><div></div></td></tr><tr><td style="font-weight:bold;vertical-align:top;">version</td><td style="vertical-align:top;">:</td><td><div></div></td></tr></table></div></td></tr><tr><td style="font-weight:bold;vertical-align:top;">session_id_release1_0</td><td style="vertical-align:top;">:</td><td><div>127.0.0.1-963e2b6b-c8ca-4c3c-a2ef-181230981ece<table><tr><td style="font-weight:bold;vertical-align:top;">comment</td><td style="vertical-align:top;">:</td><td><div></div></td></tr><tr><td style="font-weight:bold;vertical-align:top;">domain</td><td style="vertical-align:top;">:</td><td><div></div></td></tr><tr><td style="font-weight:bold;vertical-align:top;">expires</td><td style="vertical-align:top;">:</td><td><div></div></td></tr><tr><td style="font-weight:bold;vertical-align:top;">httponly</td><td style="vertical-align:top;">:</td><td><div></div></td></tr><tr><td style="font-weight:bold;vertical-align:top;">max-age</td><td style="vertical-align:top;">:</td><td><div></div></td></tr><tr><td style="font-weight:bold;vertical-align:top;">path</td><td style="vertical-align:top;">:</td><td><div></div></td></tr><tr><td style="font-weight:bold;vertical-align:top;">secure</td><td style="vertical-align:top;">:</td><td><div></div></td></tr><tr><td style="font-weight:bold;vertical-align:top;">version</td><td style="vertical-align:top;">:</td><td><div></div></td></tr></table></div></td></tr><tr><td style="font-weight:bold;vertical-align:top;">session_id_rpsonline</td><td style="vertical-align:top;">:</td><td><div>127.0.0.1-6052cc58-f6f1-4273-999a-63a10be6fb93<table><tr><td style="font-weight:bold;vertical-align:top;">comment</td><td style="vertical-align:top;">:</td><td><div></div></td></tr><tr><td style="font-weight:bold;vertical-align:top;">domain</td><td style="vertical-align:top;">:</td><td><div></div></td></tr><tr><td style="font-weight:bold;vertical-align:top;">expires</td><td style="vertical-align:top;">:</td><td><div></div></td></tr><tr><td style="font-weight:bold;vertical-align:top;">httponly</td><td style="vertical-align:top;">:</td><td><div></div></td></tr><tr><td style="font-weight:bold;vertical-align:top;">max-age</td><td style="vertical-align:top;">:</td><td><div></div></td></tr><tr><td style="font-weight:bold;vertical-align:top;">path</td><td style="vertical-align:top;">:</td><td><div></div></td></tr><tr><td style="font-weight:bold;vertical-align:top;">secure</td><td style="vertical-align:top;">:</td><td><div></div></td></tr><tr><td style="font-weight:bold;vertical-align:top;">version</td><td style="vertical-align:top;">:</td><td><div></div></td></tr></table></div></td></tr><tr><td style="font-weight:bold;vertical-align:top;">session_id_welcome</td><td style="vertical-align:top;">:</td><td><div>127.0.0.1-972f638f-4f53-45f3-93c1-526c4dcbf93d<table><tr><td style="font-weight:bold;vertical-align:top;">comment</td><td style="vertical-align:top;">:</td><td><div></div></td></tr><tr><td style="font-weight:bold;vertical-align:top;">domain</td><td style="vertical-align:top;">:</td><td><div></div></td></tr><tr><td style="font-weight:bold;vertical-align:top;">expires</td><td style="vertical-align:top;">:</td><td><div></div></td></tr><tr><td style="font-weight:bold;vertical-align:top;">httponly</td><td style="vertical-align:top;">:</td><td><div></div></td></tr><tr><td style="font-weight:bold;vertical-align:top;">max-age</td><td style="vertical-align:top;">:</td><td><div></div></td></tr><tr><td style="font-weight:bold;vertical-align:top;">path</td><td style="vertical-align:top;">:</td><td><div></div></td></tr><tr><td style="font-weight:bold;vertical-align:top;">secure</td><td style="vertical-align:top;">:</td><td><div></div></td></tr><tr><td style="font-weight:bold;vertical-align:top;">version</td><td style="vertical-align:top;">:</td><td><div></div></td></tr></table></div></td></tr></table></div></td></tr><tr><td style="font-weight:bold;vertical-align:top;">env</td><td style="vertical-align:top;">:</td><td><div><table><tr><td style="font-weight:bold;vertical-align:top;">HTTP_ACCEPT</td><td style="vertical-align:top;">:</td><td><div>text/html,application/xhtml+xml,application/xml;q=0.9,image/webp,*/*;q=0.8</div></td></tr><tr><td style="font-weight:bold;vertical-align:top;">HTTP_ACCEPT_ENCODING</td><td style="vertical-align:top;">:</td><td><div>gzip, deflate, sdch, br</div></td></tr><tr><td style="font-weight:bold;vertical-align:top;">HTTP_ACCEPT_LANGUAGE</td><td style="vertical-align:top;">:</td><td><div>en-US,en;q=0.8</div></td></tr><tr><td style="font-weight:bold;vertical-align:top;">HTTP_CACHE_CONTROL</td><td style="vertical-align:top;">:</td><td><div>max-age=0</div></td></tr><tr><td style="font-weight:bold;vertical-align:top;">HTTP_CONNECTION</td><td style="vertical-align:top;">:</td><td><div>keep-alive</div></td></tr><tr><td style="font-weight:bold;vertical-align:top;">HTTP_COOKIE</td><td style="vertical-align:top;">:</td><td><div>session_id_release1_0=127.0.0.1-963e2b6b-c8ca-4c3c-a2ef-181230981ece; session_id_welcome=127.0.0.1-972f638f-4f53-45f3-93c1-526c4dcbf93d; session_id_rpsonline=127.0.0.1-6052cc58-f6f1-4273-999a-63a10be6fb93; session_id_admin=127.0.0.1-31d97684-507c-482b-ae6e-5dcceb57d82e</div></td></tr><tr><td style="font-weight:bold;vertical-align:top;">HTTP_HOST</td><td style="vertical-align:top;">:</td><td><div>127.0.0.1:8000</div></td></tr><tr><td style="font-weight:bold;vertical-align:top;">HTTP_REFERER</td><td style="vertical-align:top;">:</td><td><div>http://127.0.0.1:8000/RPSOnline/default/user/register?_next=%2FRPSOnline%2Fdefault%2Fprofile</div></td></tr><tr><td style="font-weight:bold;vertical-align:top;">HTTP_UPGRADE_INSECURE_REQUESTS</td><td style="vertical-align:top;">:</td><td><div>1</div></td></tr><tr><td style="font-weight:bold;vertical-align:top;">HTTP_USER_AGENT</td><td style="vertical-align:top;">:</td><td><div>Mozilla/5.0 (Windows NT 10.0; WOW64) AppleWebKit/537.36 (KHTML, like Gecko) Chrome/57.0.2987.133 Safari/537.36</div></td></tr><tr><td style="font-weight:bold;vertical-align:top;">PATH_INFO</td><td style="vertical-align:top;">:</td><td><div>/RPSOnline/default/profile</div></td></tr><tr><td style="font-weight:bold;vertical-align:top;">QUERY_STRING</td><td style="vertical-align:top;">:</td><td><div></div></td></tr><tr><td style="font-weight:bold;vertical-align:top;">REMOTE_ADDR</td><td style="vertical-align:top;">:</td><td><div>127.0.0.1</div></td></tr><tr><td style="font-weight:bold;vertical-align:top;">REMOTE_PORT</td><td style="vertical-align:top;">:</td><td><div>59785</div></td></tr><tr><td style="font-weight:bold;vertical-align:top;">REQUEST_METHOD</td><td style="vertical-align:top;">:</td><td><div>GET</div></td></tr><tr><td style="font-weight:bold;vertical-align:top;">SCRIPT_NAME</td><td style="vertical-align:top;">:</td><td><div></div></td></tr><tr><td style="font-weight:bold;vertical-align:top;">SERVER_NAME</td><td style="vertical-align:top;">:</td><td><div>DESKTOP-AO957DV</div></td></tr><tr><td style="font-weight:bold;vertical-align:top;">SERVER_PORT</td><td style="vertical-align:top;">:</td><td><div>8000</div></td></tr><tr><td style="font-weight:bold;vertical-align:top;">SERVER_PROTOCOL</td><td style="vertical-align:top;">:</td><td><div>HTTP/1.1</div></td></tr><tr><td style="font-weight:bold;vertical-align:top;">SERVER_SOFTWARE</td><td style="vertical-align:top;">:</td><td><div>Rocket 1.2.6</div></td></tr><tr><td style="font-weight:bold;vertical-align:top;">app_folders</td><td style="vertical-align:top;">:</td><td><div>set([&#x27;C:\\\\Users\\\\Justice\\\\Desktop\\\\cs115-main\\\\cs115-project\\\\web2py\\\\applications\\\\welcome\\\\&#x27;, &#x27;C:\\\\Users\\\\Justice\\\\Desktop\\\\cs115-main\\\\cs115-project\\\\web2py\\\\applications\\\\examples\\\\&#x27;, &#x27;C:\\\\Users\\\\Justice\\\\Desktop\\\\cs115-main\\\\cs115-project\\\\web2py\\\\applications\\\\admin\\\\&#x27;, &#x27;C:\\\\Users\\\\Justice\\\\Desktop\\\\cs115-main\\\\cs115-project\\\\web2py\\\\applications\\\\RPSOnline\\\\&#x27;])</div></td></tr><tr><td style="font-weight:bold;vertical-align:top;">applications_parent</td><td style="vertical-align:top;">:</td><td><div>C:\\Users\\Justice\\Desktop\\cs115-main\\cs115-project\\web2py</div></td></tr><tr><td style="font-weight:bold;vertical-align:top;">cmd_args</td><td style="vertical-align:top;">:</td><td><div><table></table></div></td></tr><tr><td style="font-weight:bold;vertical-align:top;">cmd_options</td><td style="vertical-align:top;">:</td><td><div>&lt;Values at 0x3938e40: {&#x27;verbose&#x27;: False, &#x27;ip&#x27;: &#x27;127.0.0.1&#x27;, &#x27;debuglevel&#x27;: 30, &#x27;with_scheduler&#x27;: False, &#x27;shutdown_timeout&#x27;: 5, &#x27;taskbar&#x27;: False, &#x27;with_coverage&#x27;: False, &#x27;pid_filename&#x27;: &#x27;httpserver.pid&#x27;, &#x27;maxthreads&#x27;: None, &#x27;softcron&#x27;: False, &#x27;server_name&#x27;: &#x27;DESKTOP-AO957DV&#x27;, &#x27;bpython&#x27;: False, &#x27;nogui&#x27;: False, &#x27;port&#x27;: 8000, &#x27;print_errors&#x27;: False, &#x27;extcron&#x27;: False, &#x27;runcron&#x27;: False, &#x27;run_system_tests&#x27;: False, &#x27;test&#x27;: None, &#x27;folder&#x27;: &#x27;C:\\\\Users\\\\Justice\\\\Desktop\\\\cs115-main\\\\cs115-project\\\\web2py&#x27;, &#x27;config&#x27;: &#x27;&#x27;, &#x27;minthreads&#x27;: None, &#x27;shell&#x27;: None, &#x27;run&#x27;: &#x27;&#x27;, &#x27;log_filename&#x27;: &#x27;httpserver.log&#x27;, &#x27;profiler_dir&#x27;: None, &#x27;args&#x27;: [&#x27;&#x27;], &#x27;socket_timeout&#x27;: 5, &#x27;ssl_ca_certificate&#x27;: None, &#x27;scheduler&#x27;: None, &#x27;interfaces&#x27;: None, &#x27;ssl_private_key&#x27;: &#x27;&#x27;, &#x27;gae&#x27;: None, &#x27;password&#x27;: &#x27;******&#x27;, &#x27;request_queue_size&#x27;: 5, &#x27;ssl_certificate&#x27;: &#x27;&#x27;, &#x27;cronjob&#x27;: False, &#x27;numthreads&#x27;: None, &#x27;quiet&#x27;: False, &#x27;import_models&#x27;: False, &#x27;timeout&#x27;: 10, &#x27;plain&#x27;: False, &#x27;nobanner&#x27;: False}&gt;</div></td></tr><tr><td style="font-weight:bold;vertical-align:top;">db_sessions</td><td style="vertical-align:top;">:</td><td><div>set([])</div></td></tr><tr><td style="font-weight:bold;vertical-align:top;">debugging</td><td style="vertical-align:top;">:</td><td><div>True</div></td></tr><tr><td style="font-weight:bold;vertical-align:top;">gluon_parent</td><td style="vertical-align:top;">:</td><td><div>C:\\Users\\Justice\\Desktop\\cs115-main\\cs115-project\\web2py</div></td></tr><tr><td style="font-weight:bold;vertical-align:top;">http_accept</td><td style="vertical-align:top;">:</td><td><div>text/html,application/xhtml+xml,application/xml;q=0.9,image/webp,*/*;q=0.8</div></td></tr><tr><td style="font-weight:bold;vertical-align:top;">http_accept_encoding</td><td style="vertical-align:top;">:</td><td><div>gzip, deflate, sdch, br</div></td></tr><tr><td style="font-weight:bold;vertical-align:top;">http_accept_language</td><td style="vertical-align:top;">:</td><td><div>en-US,en;q=0.8</div></td></tr><tr><td style="font-weight:bold;vertical-align:top;">http_cache_control</td><td style="vertical-align:top;">:</td><td><div>max-age=0</div></td></tr><tr><td style="font-weight:bold;vertical-align:top;">http_connection</td><td style="vertical-align:top;">:</td><td><div>keep-alive</div></td></tr><tr><td style="font-weight:bold;vertical-align:top;">http_cookie</td><td style="vertical-align:top;">:</td><td><div>session_id_release1_0=127.0.0.1-963e2b6b-c8ca-4c3c-a2ef-181230981ece; session_id_welcome=127.0.0.1-972f638f-4f53-45f3-93c1-526c4dcbf93d; session_id_rpsonline=127.0.0.1-6052cc58-f6f1-4273-999a-63a10be6fb93; session_id_admin=127.0.0.1-31d97684-507c-482b-ae6e-5dcceb57d82e</div></td></tr><tr><td style="font-weight:bold;vertical-align:top;">http_host</td><td style="vertical-align:top;">:</td><td><div>127.0.0.1:8000</div></td></tr><tr><td style="font-weight:bold;vertical-align:top;">http_referer</td><td style="vertical-align:top;">:</td><td><div>http://127.0.0.1:8000/RPSOnline/default/user/register?_next=%2FRPSOnline%2Fdefault%2Fprofile</div></td></tr><tr><td style="font-weight:bold;vertical-align:top;">http_upgrade_insecure_requests</td><td style="vertical-align:top;">:</td><td><div>1</div></td></tr><tr><td style="font-weight:bold;vertical-align:top;">http_user_agent</td><td style="vertical-align:top;">:</td><td><div>Mozilla/5.0 (Windows NT 10.0; WOW64) AppleWebKit/537.36 (KHTML, like Gecko) Chrome/57.0.2987.133 Safari/537.36</div></td></tr><tr><td style="font-weight:bold;vertical-align:top;">is_jython</td><td style="vertical-align:top;">:</td><td><div>False</div></td></tr><tr><td style="font-weight:bold;vertical-align:top;">is_pypy</td><td style="vertical-align:top;">:</td><td><div>False</div></td></tr><tr><td style="font-weight:bold;vertical-align:top;">is_source</td><td style="vertical-align:top;">:</td><td><div>True</div></td></tr><tr><td style="font-weight:bold;vertical-align:top;">local_hosts</td><td style="vertical-align:top;">:</td><td><div><table><tr><td><div>::ffff:127.0.0.1</div></td></tr><tr><td><div>::1</div></td></tr><tr><td><div>fe80::200:5efe:169.233.214.170%7</div></td></tr><tr><td><div>169.233.214.170</div></td></tr><tr><td><div>127.0.0.1</div></td></tr><tr><td><div>fe80::742e:2538:989d:304a%3</div></td></tr><tr><td><div>DESKTOP-AO957DV.ucsc.edu</div></td></tr><tr><td><div>DESKTOP-AO957DV</div></td></tr></table></div></td></tr><tr><td style="font-weight:bold;vertical-align:top;">path_info</td><td style="vertical-align:top;">:</td><td><div>/RPSOnline/default/profile</div></td></tr><tr><td style="font-weight:bold;vertical-align:top;">query_string</td><td style="vertical-align:top;">:</td><td><div></div></td></tr><tr><td style="font-weight:bold;vertical-align:top;">remote_addr</td><td style="vertical-align:top;">:</td><td><div>127.0.0.1</div></td></tr><tr><td style="font-weight:bold;vertical-align:top;">remote_port</td><td style="vertical-align:top;">:</td><td><div>59785</div></td></tr><tr><td style="font-weight:bold;vertical-align:top;">request_method</td><td style="vertical-align:top;">:</td><td><div>GET</div></td></tr><tr><td style="font-weight:bold;vertical-align:top;">request_uri</td><td style="vertical-align:top;">:</td><td><div>/RPSOnline/default/profile</div></td></tr><tr><td style="font-weight:bold;vertical-align:top;">script_name</td><td style="vertical-align:top;">:</td><td><div></div></td></tr><tr><td style="font-weight:bold;vertical-align:top;">server_name</td><td style="vertical-align:top;">:</td><td><div>DESKTOP-AO957DV</div></td></tr><tr><td style="font-weight:bold;vertical-align:top;">server_port</td><td style="vertical-align:top;">:</td><td><div>8000</div></td></tr><tr><td style="font-weight:bold;vertical-align:top;">server_protocol</td><td style="vertical-align:top;">:</td><td><div>HTTP/1.1</div></td></tr><tr><td style="font-weight:bold;vertical-align:top;">server_software</td><td style="vertical-align:top;">:</td><td><div>Rocket 1.2.6</div></td></tr><tr><td style="font-weight:bold;vertical-align:top;">web2py_path</td><td style="vertical-align:top;">:</td><td><div>C:\\Users\\Justice\\Desktop\\cs115-main\\cs115-project\\web2py</div></td></tr><tr><td style="font-weight:bold;vertical-align:top;">web2py_version</td><td style="vertical-align:top;">:</td><td><div>2.14.6-stable+timestamp.2016.05.10.00.21.47</div></td></tr><tr><td style="font-weight:bold;vertical-align:top;">wsgi.errors</td><td style="vertical-align:top;">:</td><td><div>&lt;open file &#x27;&lt;stderr&gt;&#x27;, mode &#x27;w&#x27; at 0x0294D0D0&gt;</div></td></tr><tr><td style="font-weight:bold;vertical-align:top;">wsgi.file_wrapper</td><td style="vertical-align:top;">:</td><td><div>&lt;class wsgiref.util.FileWrapper at 0x03900928&gt;</div></td></tr><tr><td style="font-weight:bold;vertical-align:top;">wsgi.input</td><td style="vertical-align:top;">:</td><td><div>&lt;socket._fileobject object at 0x0A287230&gt;</div></td></tr><tr><td style="font-weight:bold;vertical-align:top;">wsgi.multiprocess</td><td style="vertical-align:top;">:</td><td><div>False</div></td></tr><tr><td style="font-weight:bold;vertical-align:top;">wsgi.multithread</td><td style="vertical-align:top;">:</td><td><div>True</div></td></tr><tr><td style="font-weight:bold;vertical-align:top;">wsgi.run_once</td><td style="vertical-align:top;">:</td><td><div>False</div></td></tr><tr><td style="font-weight:bold;vertical-align:top;">wsgi.url_scheme</td><td style="vertical-align:top;">:</td><td><div>http</div></td></tr><tr><td style="font-weight:bold;vertical-align:top;">wsgi.version</td><td style="vertical-align:top;">:</td><td><div><table><tr><td><div>1</div></td></tr><tr><td><div>0</div></td></tr></table></div></td></tr><tr><td style="font-weight:bold;vertical-align:top;">wsgi_errors</td><td style="vertical-align:top;">:</td><td><div>&lt;open file &#x27;&lt;stderr&gt;&#x27;, mode &#x27;w&#x27; at 0x0294D0D0&gt;</div></td></tr><tr><td style="font-weight:bold;vertical-align:top;">wsgi_file_wrapper</td><td style="vertical-align:top;">:</td><td><div>&lt;class wsgiref.util.FileWrapper at 0x03900928&gt;</div></td></tr><tr><td style="font-weight:bold;vertical-align:top;">wsgi_input</td><td style="vertical-align:top;">:</td><td><div>&lt;socket._fileobject object at 0x0A287230&gt;</div></td></tr><tr><td style="font-weight:bold;vertical-align:top;">wsgi_multiprocess</td><td style="vertical-align:top;">:</td><td><div>False</div></td></tr><tr><td style="font-weight:bold;vertical-align:top;">wsgi_multithread</td><td style="vertical-align:top;">:</td><td><div>True</div></td></tr><tr><td style="font-weight:bold;vertical-align:top;">wsgi_run_once</td><td style="vertical-align:top;">:</td><td><div>False</div></td></tr><tr><td style="font-weight:bold;vertical-align:top;">wsgi_url_scheme</td><td style="vertical-align:top;">:</td><td><div>http</div></td></tr><tr><td style="font-weight:bold;vertical-align:top;">wsgi_version</td><td style="vertical-align:top;">:</td><td><div><table><tr><td><div>1</div></td></tr><tr><td><div>0</div></td></tr></table></div></td></tr></table></div></td></tr><tr><td style="font-weight:bold;vertical-align:top;">extension</td><td style="vertical-align:top;">:</td><td><div>html</div></td></tr><tr><td style="font-weight:bold;vertical-align:top;">folder</td><td style="vertical-align:top;">:</td><td><div>C:\\Users\\Justice\\Desktop\\cs115-main\\cs115-project\\web2py\\applications\\RPSOnline\\</div></td></tr><tr><td style="font-weight:bold;vertical-align:top;">function</td><td style="vertical-align:top;">:</td><td><div>profile</div></td></tr><tr><td style="font-weight:bold;vertical-align:top;">global_settings</td><td style="vertical-align:top;">:</td><td><div><table><tr><td style="font-weight:bold;vertical-align:top;">app_folders</td><td style="vertical-align:top;">:</td><td><div>set([&#x27;C:\\\\Users\\\\Justice\\\\Desktop\\\\cs115-main\\\\cs115-project\\\\web2py\\\\applications\\\\welcome\\\\&#x27;, &#x27;C:\\\\Users\\\\Justice\\\\Desktop\\\\cs115-main\\\\cs115-project\\\\web2py\\\\applications\\\\examples\\\\&#x27;, &#x27;C:\\\\Users\\\\Justice\\\\Desktop\\\\cs115-main\\\\cs115-project\\\\web2py\\\\applications\\\\admin\\\\&#x27;, &#x27;C:\\\\Users\\\\Justice\\\\Desktop\\\\cs115-main\\\\cs115-project\\\\web2py\\\\applications\\\\RPSOnline\\\\&#x27;])</div></td></tr><tr><td style="font-weight:bold;vertical-align:top;">applications_parent</td><td style="vertical-align:top;">:</td><td><div>C:\\Users\\Justice\\Desktop\\cs115-main\\cs115-project\\web2py</div></td></tr><tr><td style="font-weight:bold;vertical-align:top;">cmd_args</td><td style="vertical-align:top;">:</td><td><div><table></table></div></td></tr><tr><td style="font-weight:bold;vertical-align:top;">cmd_options</td><td style="vertical-align:top;">:</td><td><div>&lt;Values at 0x3938e40: {&#x27;verbose&#x27;: False, &#x27;ip&#x27;: &#x27;127.0.0.1&#x27;, &#x27;debuglevel&#x27;: 30, &#x27;with_scheduler&#x27;: False, &#x27;shutdown_timeout&#x27;: 5, &#x27;taskbar&#x27;: False, &#x27;with_coverage&#x27;: False, &#x27;pid_filename&#x27;: &#x27;httpserver.pid&#x27;, &#x27;maxthreads&#x27;: None, &#x27;softcron&#x27;: False, &#x27;server_name&#x27;: &#x27;DESKTOP-AO957DV&#x27;, &#x27;bpython&#x27;: False, &#x27;nogui&#x27;: False, &#x27;port&#x27;: 8000, &#x27;print_errors&#x27;: False, &#x27;extcron&#x27;: False, &#x27;runcron&#x27;: False, &#x27;run_system_tests&#x27;: False, &#x27;test&#x27;: None, &#x27;folder&#x27;: &#x27;C:\\\\Users\\\\Justice\\\\Desktop\\\\cs115-main\\\\cs115-project\\\\web2py&#x27;, &#x27;config&#x27;: &#x27;&#x27;, &#x27;minthreads&#x27;: None, &#x27;shell&#x27;: None, &#x27;run&#x27;: &#x27;&#x27;, &#x27;log_filename&#x27;: &#x27;httpserver.log&#x27;, &#x27;profiler_dir&#x27;: None, &#x27;args&#x27;: [&#x27;&#x27;], &#x27;socket_timeout&#x27;: 5, &#x27;ssl_ca_certificate&#x27;: None, &#x27;scheduler&#x27;: None, &#x27;interfaces&#x27;: None, &#x27;ssl_private_key&#x27;: &#x27;&#x27;, &#x27;gae&#x27;: None, &#x27;password&#x27;: &#x27;******&#x27;, &#x27;request_queue_size&#x27;: 5, &#x27;ssl_certificate&#x27;: &#x27;&#x27;, &#x27;cronjob&#x27;: False, &#x27;numthreads&#x27;: None, &#x27;quiet&#x27;: False, &#x27;import_models&#x27;: False, &#x27;timeout&#x27;: 10, &#x27;plain&#x27;: False, &#x27;nobanner&#x27;: False}&gt;</div></td></tr><tr><td style="font-weight:bold;vertical-align:top;">db_sessions</td><td style="vertical-align:top;">:</td><td><div>set([])</div></td></tr><tr><td style="font-weight:bold;vertical-align:top;">debugging</td><td style="vertical-align:top;">:</td><td><div>True</div></td></tr><tr><td style="font-weight:bold;vertical-align:top;">gluon_parent</td><td style="vertical-align:top;">:</td><td><div>C:\\Users\\Justice\\Desktop\\cs115-main\\cs115-project\\web2py</div></td></tr><tr><td style="font-weight:bold;vertical-align:top;">is_jython</td><td style="vertical-align:top;">:</td><td><div>False</div></td></tr><tr><td style="font-weight:bold;vertical-align:top;">is_pypy</td><td style="vertical-align:top;">:</td><td><div>False</div></td></tr><tr><td style="font-weight:bold;vertical-align:top;">is_source</td><td style="vertical-align:top;">:</td><td><div>True</div></td></tr><tr><td style="font-weight:bold;vertical-align:top;">local_hosts</td><td style="vertical-align:top;">:</td><td><div><table><tr><td><div>::ffff:127.0.0.1</div></td></tr><tr><td><div>::1</div></td></tr><tr><td><div>fe80::200:5efe:169.233.214.170%7</div></td></tr><tr><td><div>169.233.214.170</div></td></tr><tr><td><div>127.0.0.1</div></td></tr><tr><td><div>fe80::742e:2538:989d:304a%3</div></td></tr><tr><td><div>DESKTOP-AO957DV.ucsc.edu</div></td></tr><tr><td><div>DESKTOP-AO957DV</div></td></tr></table></div></td></tr><tr><td style="font-weight:bold;vertical-align:top;">web2py_version</td><td style="vertical-align:top;">:</td><td><div>2.14.6-stable+timestamp.2016.05.10.00.21.47</div></td></tr></table></div></td></tr><tr><td style="font-weight:bold;vertical-align:top;">is_https</td><td style="vertical-align:top;">:</td><td><div>False</div></td></tr><tr><td style="font-weight:bold;vertical-align:top;">is_local</td><td style="vertical-align:top;">:</td><td><div>True</div></td></tr><tr><td style="font-weight:bold;vertical-align:top;">is_restful</td><td style="vertical-align:top;">:</td><td><div>False</div></td></tr><tr><td style="font-weight:bold;vertical-align:top;">is_scheduler</td><td style="vertical-align:top;">:</td><td><div>False</div></td></tr><tr><td style="font-weight:bold;vertical-align:top;">is_shell</td><td style="vertical-align:top;">:</td><td><div>False</div></td></tr><tr><td style="font-weight:bold;vertical-align:top;">now</td><td style="vertical-align:top;">:</td><td><div>datetime.datetime(2017, 4, 24, 23, 53, 54, 741000)</div></td></tr><tr><td style="font-weight:bold;vertical-align:top;">raw_args</td><td style="vertical-align:top;">:</td><td><div></div></td></tr><tr><td style="font-weight:bold;vertical-align:top;">raw_extension</td><td style="vertical-align:top;">:</td><td><div>None</div></td></tr><tr><td style="font-weight:bold;vertical-align:top;">url</td><td style="vertical-align:top;">:</td><td><div>/RPSOnline/default/profile</div></td></tr><tr><td style="font-weight:bold;vertical-align:top;">utcnow</td><td style="vertical-align:top;">:</td><td><div>datetime.datetime(2017, 4, 25, 6, 53, 54, 741000)</div></td></tr><tr><td style="font-weight:bold;vertical-align:top;">wsgi</td><td style="vertical-align:top;">:</td><td><div>&lt;gluon.main.LazyWSGI object at 0x09D65CF0&gt;</div></td></tr></table></div>'
tRp70
sS'frames'
p71
(lp72
(dp73
S'file'
p74
S'C:\\Users\\Justice\\Desktop\\cs115-main\\cs115-project\\web2py\\gluon\\restricted.py'
p75
sS'dump'
p76
(dp77
S'code'
p78
S"'# -*- coding: utf-8 -*-\\n# this file is released ...vice()\\n\\nresponse._vars=response._caller(profile)\\n'"
p79
sS'layer'
p80
S"r'C:\\Users\\Justice\\Desktop\\cs115-main\\cs115-projec...2py\\applications\\RPSOnline\\controllers/default.py'"
p81
sS'global compile2'
p82
S'<function compile2>'
p83
sS'ccode'
p84
S'undefined'
p85
ssS'lnum'
p86
I226
sS'lines'
p87
(dp88
I224
S'            ccode = code'
p89
sI225
S'        else:'
p90
sI226
S'            ccode = compile2(code, layer)'
p91
sI227
S'        exec ccode in environment'
p92
sI228
S'    except HTTP:'
p93
sI229
S'        raise'
p94
sI230
S'    except RestrictedError:'
p95
sI221
S"    environment['__name__'] = '__restricted__'"
p96
sI222
S'    try:'
p97
sI223
S'        if isinstance(code, types.CodeType):'
p98
ssS'call'
p99
S"(code='# -*- coding: utf-8 -*-\\n# this file is released ...vice()\\n\\nresponse._vars=response._caller(profile)\\n', environment={'A': <class 'gluon.html.A'>, 'ANY_OF': <class 'gluon.validators.ANY_OF'>, 'ASSIGNJS': <function ASSIGNJS>, 'Auth': <class 'gluon.tools.Auth'>, 'B': <class 'gluon.html.B'>, 'BEAUTIFY': <class 'gluon.html.BEAUTIFY'>, 'BODY': <class 'gluon.html.BODY'>, 'BR': <class 'gluon.html.BR'>, 'BUTTON': <class 'gluon.html.BUTTON'>, 'CAT': <class 'gluon.html.CAT'>, ...}, layer=r'C:\\Users\\Justice\\Desktop\\cs115-main\\cs115-projec...2py\\applications\\RPSOnline\\controllers/default.py')"
p100
sS'func'
p101
S'restricted'
p102
sa(dp103
g74
S'C:\\Users\\Justice\\Desktop\\cs115-main\\cs115-project\\web2py\\gluon\\restricted.py'
p104
sg76
(dp105
S'builtincompile'
p106
S'<built-in function compile>'
p107
sS'code'
p108
S"'# -*- coding: utf-8 -*-\\n# this file is released ...vice()\\n\\nresponse._vars=response._caller(profile)\\n'"
p109
sS'code.rstrip'
p110
S'<built-in method rstrip of str object>'
p111
sS').replace'
p112
g85
sS'layer'
p113
S"r'C:\\Users\\Justice\\Desktop\\cs115-main\\cs115-projec...2py\\applications\\RPSOnline\\controllers/default.py'"
p114
ssg86
I209
sg87
(dp115
I204
S'def compile2(code, layer):'
p116
sI205
S'    """'
p117
sI206
S"    The ``+'\\\\n'`` is necessary else compile fails when code ends in a comment."
p118
sI207
S'    """'
p119
sI208
S''
sI209
S"    return compile(code.rstrip().replace('\\r\\n', '\\n') + '\\n', layer, 'exec')"
p120
sI210
S''
sI211
S''
sI212
S"def restricted(code, environment=None, layer='Unknown'):"
p121
sI213
S'    """'
p122
ssg99
S"(code='# -*- coding: utf-8 -*-\\n# this file is released ...vice()\\n\\nresponse._vars=response._caller(profile)\\n', layer=r'C:\\Users\\Justice\\Desktop\\cs115-main\\cs115-projec...2py\\applications\\RPSOnline\\controllers/default.py')"
p123
sg101
S'compile2'
p124
sasS'pyver'
p125
S'Python 2.7.13: C:\\Python27\\python.exe (prefix: C:\\Python27)'
p126
sS'session'
p127
g69
(S'sb\x08\x00\x00<div><table><tr><td style="font-weight:bold;vertical-align:top;">auth</td><td style="vertical-align:top;">:</td><td><div><table><tr><td style="font-weight:bold;vertical-align:top;">expiration</td><td style="vertical-align:top;">:</td><td><div>3600</div></td></tr><tr><td style="font-weight:bold;vertical-align:top;">hmac_key</td><td style="vertical-align:top;">:</td><td><div>3d6c38e6-092c-4dae-8585-8cd0b855ad77</div></td></tr><tr><td style="font-weight:bold;vertical-align:top;">last_visit</td><td style="vertical-align:top;">:</td><td><div>datetime.datetime(2017, 4, 24, 23, 53, 8, 572000)</div></td></tr><tr><td style="font-weight:bold;vertical-align:top;">user</td><td style="vertical-align:top;">:</td><td><div><table><tr><td style="font-weight:bold;vertical-align:top;">email</td><td style="vertical-align:top;">:</td><td><div>jdlammer@ucsc.edu</div></td></tr><tr><td style="font-weight:bold;vertical-align:top;">first_name</td><td style="vertical-align:top;">:</td><td><div>Justice</div></td></tr><tr><td style="font-weight:bold;vertical-align:top;">id</td><td style="vertical-align:top;">:</td><td><div>1L</div></td></tr><tr><td style="font-weight:bold;vertical-align:top;">last_name</td><td style="vertical-align:top;">:</td><td><div>Lammers</div></td></tr><tr><td style="font-weight:bold;vertical-align:top;">registration_id</td><td style="vertical-align:top;">:</td><td><div></div></td></tr><tr><td style="font-weight:bold;vertical-align:top;">registration_key</td><td style="vertical-align:top;">:</td><td><div></div></td></tr><tr><td style="font-weight:bold;vertical-align:top;">reset_password_key</td><td style="vertical-align:top;">:</td><td><div></div></td></tr></table></div></td></tr><tr><td style="font-weight:bold;vertical-align:top;">user_groups</td><td style="vertical-align:top;">:</td><td><div><table><tr><td style="font-weight:bold;vertical-align:top;">1</td><td style="vertical-align:top;">:</td><td><div>user_1</div></td></tr></table></div></td></tr></table></div></td></tr><tr><td style="font-weight:bold;vertical-align:top;">flash</td><td style="vertical-align:top;">:</td><td><div>None</div></td></tr></table></div>'
tRp128
sS'etype'
p129
S"<type 'exceptions.IndentationError'>"
p130
sS'date'
p131
S'Mon Apr 24 23:53:54 2017'
p132
sS'response'
p133
g69
(S's\xbd\x17\x00\x00<div><table><tr><td style="font-weight:bold;vertical-align:top;">body</td><td style="vertical-align:top;">:</td><td><div>&lt;cStringIO.StringO object at 0x0A13C220&gt;</div></td></tr><tr><td style="font-weight:bold;vertical-align:top;">cookies</td><td style="vertical-align:top;">:</td><td><div><table><tr><td style="font-weight:bold;vertical-align:top;">session_id_rpsonline</td><td style="vertical-align:top;">:</td><td><div>127.0.0.1-6052cc58-f6f1-4273-999a-63a10be6fb93<table><tr><td style="font-weight:bold;vertical-align:top;">comment</td><td style="vertical-align:top;">:</td><td><div></div></td></tr><tr><td style="font-weight:bold;vertical-align:top;">domain</td><td style="vertical-align:top;">:</td><td><div></div></td></tr><tr><td style="font-weight:bold;vertical-align:top;">expires</td><td style="vertical-align:top;">:</td><td><div></div></td></tr><tr><td style="font-weight:bold;vertical-align:top;">httponly</td><td style="vertical-align:top;">:</td><td><div></div></td></tr><tr><td style="font-weight:bold;vertical-align:top;">max-age</td><td style="vertical-align:top;">:</td><td><div></div></td></tr><tr><td style="font-weight:bold;vertical-align:top;">path</td><td style="vertical-align:top;">:</td><td><div>/</div></td></tr><tr><td style="font-weight:bold;vertical-align:top;">secure</td><td style="vertical-align:top;">:</td><td><div></div></td></tr><tr><td style="font-weight:bold;vertical-align:top;">version</td><td style="vertical-align:top;">:</td><td><div></div></td></tr></table></div></td></tr></table></div></td></tr><tr><td style="font-weight:bold;vertical-align:top;">delimiters</td><td style="vertical-align:top;">:</td><td><div><table><tr><td><div>{{</div></td></tr><tr><td><div>}}</div></td></tr></table></div></td></tr><tr><td style="font-weight:bold;vertical-align:top;">files</td><td style="vertical-align:top;">:</td><td><div><table></table></div></td></tr><tr><td style="font-weight:bold;vertical-align:top;">flash</td><td style="vertical-align:top;">:</td><td><div></div></td></tr><tr><td style="font-weight:bold;vertical-align:top;">form_label_separator</td><td style="vertical-align:top;">:</td><td><div>: </div></td></tr><tr><td style="font-weight:bold;vertical-align:top;">formstyle</td><td style="vertical-align:top;">:</td><td><div>table3cols</div></td></tr><tr><td style="font-weight:bold;vertical-align:top;">generic_patterns</td><td style="vertical-align:top;">:</td><td><div><table><tr><td><div>*</div></td></tr></table></div></td></tr><tr><td style="font-weight:bold;vertical-align:top;">headers</td><td style="vertical-align:top;">:</td><td><div><table><tr><td style="font-weight:bold;vertical-align:top;">X-Powered-By</td><td style="vertical-align:top;">:</td><td><div>web2py</div></td></tr></table></div></td></tr><tr><td style="font-weight:bold;vertical-align:top;">menu</td><td style="vertical-align:top;">:</td><td><div><table></table></div></td></tr><tr><td style="font-weight:bold;vertical-align:top;">meta</td><td style="vertical-align:top;">:</td><td><div><table></table></div></td></tr><tr><td style="font-weight:bold;vertical-align:top;">models_to_run</td><td style="vertical-align:top;">:</td><td><div><table><tr><td><div>^\\w+\\.py$</div></td></tr><tr><td><div>^default/\\w+\\.py$</div></td></tr><tr><td><div>^default/profile/\\w+\\.py$</div></td></tr></table></div></td></tr><tr><td style="font-weight:bold;vertical-align:top;">postprocessing</td><td style="vertical-align:top;">:</td><td><div><table></table></div></td></tr><tr><td style="font-weight:bold;vertical-align:top;">session_client</td><td style="vertical-align:top;">:</td><td><div>127.0.0.1</div></td></tr><tr><td style="font-weight:bold;vertical-align:top;">session_cookie_compression_level</td><td style="vertical-align:top;">:</td><td><div>None</div></td></tr><tr><td style="font-weight:bold;vertical-align:top;">session_cookie_expires</td><td style="vertical-align:top;">:</td><td><div>None</div></td></tr><tr><td style="font-weight:bold;vertical-align:top;">session_data_name</td><td style="vertical-align:top;">:</td><td><div>session_data_rpsonline</div></td></tr><tr><td style="font-weight:bold;vertical-align:top;">session_file</td><td style="vertical-align:top;">:</td><td><div>&lt;open file &#x27;C:\\\\Users\\\\Justice\\\\Desktop\\\\cs115-main\\\\cs115-project\\\\web2py\\\\applications\\\\RPSOnline\\\\sessions\\\\048\\\\1f3\\\\127.0.0.1-6052cc58-f6f1-4273-999a-63a10be6fb93&#x27;, mode &#x27;rb+&#x27; at 0x0A2FAF98&gt;</div></td></tr><tr><td style="font-weight:bold;vertical-align:top;">session_filename</td><td style="vertical-align:top;">:</td><td><div>C:\\Users\\Justice\\Desktop\\cs115-main\\cs115-project\\web2py\\applications\\RPSOnline\\sessions\\127.0.0.1-6052cc58-f6f1-4273-999a-63a10be6fb93</div></td></tr><tr><td style="font-weight:bold;vertical-align:top;">session_hash</td><td style="vertical-align:top;">:</td><td><div>d96b377b058d09417bc5678d25708a2a</div></td></tr><tr><td style="font-weight:bold;vertical-align:top;">session_id</td><td style="vertical-align:top;">:</td><td><div>127.0.0.1-6052cc58-f6f1-4273-999a-63a10be6fb93</div></td></tr><tr><td style="font-weight:bold;vertical-align:top;">session_id_name</td><td style="vertical-align:top;">:</td><td><div>session_id_rpsonline</div></td></tr><tr><td style="font-weight:bold;vertical-align:top;">session_locked</td><td style="vertical-align:top;">:</td><td><div>True</div></td></tr><tr><td style="font-weight:bold;vertical-align:top;">session_masterapp</td><td style="vertical-align:top;">:</td><td><div>RPSOnline</div></td></tr><tr><td style="font-weight:bold;vertical-align:top;">session_new</td><td style="vertical-align:top;">:</td><td><div>False</div></td></tr><tr><td style="font-weight:bold;vertical-align:top;">session_storage_type</td><td style="vertical-align:top;">:</td><td><div>file</div></td></tr><tr><td style="font-weight:bold;vertical-align:top;">status</td><td style="vertical-align:top;">:</td><td><div>200</div></td></tr><tr><td style="font-weight:bold;vertical-align:top;">view</td><td style="vertical-align:top;">:</td><td><div>default/profile.html</div></td></tr></table></div>'
tRp134
sS'locals'
p135
(dp136
g4
S"r'C:\\Users\\Justice\\Desktop\\cs115-main\\cs115-projec...2py\\applications\\RPSOnline\\controllers/default.py'"
p137
sg6
S"'# -*- coding: utf-8 -*-\\n# this file is released ...vice()\\n\\nresponse._vars=response._caller(profile)\\n'"
p138
sssS'traceback'
p139
S'Traceback (most recent call last):\n  File "C:\\Users\\Justice\\Desktop\\cs115-main\\cs115-project\\web2py\\gluon\\restricted.py", line 226, in restricted\n    ccode = compile2(code, layer)\n  File "C:\\Users\\Justice\\Desktop\\cs115-main\\cs115-project\\web2py\\gluon\\restricted.py", line 209, in compile2\n    return compile(code.rstrip().replace(\'\\r\\n\', \'\\n\') + \'\\n\', layer, \'exec\')\n  File "C:\\Users\\Justice\\Desktop\\cs115-main\\cs115-project\\web2py\\applications\\RPSOnline\\controllers/default.py", line 28\n    submit_button = \'Submit your content\'\n    ^\nIndentationError: unexpected indent\n'
p140
s.